target datalayout = "e-m:e-p270:32:32-p271:32:32-p272:64:64-i64:64-i128:128-f80:128-n8:16:32:64-S128"
target triple = "x86_64-pc-linux-gnu"

%struct.SDL_HIDAPI_RumbleContext = type { %struct.SDL_AtomicInt, %struct.SDL_AtomicInt, ptr, ptr, ptr, ptr }
%struct.SDL_AtomicInt = type { i32 }
%struct.SDL_HIDAPI_RumbleRequest = type { ptr, [128 x i8], i32, ptr, ptr, ptr }
%struct.SDL_HIDAPI_Device = type { ptr, ptr, ptr, ptr, i16, i16, i16, ptr, %struct.SDL_GUID, i32, i32, i32, i32, i16, i16, i8, i32, i32, i32, ptr, ptr, ptr, ptr, %struct.SDL_AtomicInt, i32, ptr, i8, i8, i8, ptr, i32, ptr, ptr }
%struct.SDL_GUID = type { [16 x i8] }

@rumble_context = internal global %struct.SDL_HIDAPI_RumbleContext zeroinitializer, align 8
@SDL_HIDAPI_rumble_lock = internal global ptr null, align 8
@.str = private unnamed_addr constant [49 x i8] c"Couldn't send rumble, size %d is greater than %d\00", align 1

; Function Attrs: nounwind uwtable
define hidden void @SDL_HIDAPI_UnlockRumble() #0 {
  %1 = load ptr, ptr @SDL_HIDAPI_rumble_lock, align 8
  call void @SDL_UnlockMutex_REAL(ptr noundef %1)
  ret void
}

; Function Attrs: nounwind uwtable
define hidden i32 @SDL_HIDAPI_SendRumbleWithCallbackAndUnlock(ptr noundef %0, ptr noundef %1, i32 noundef %2, ptr noundef %3, ptr noundef %4) #0 {
  %6 = alloca i32, align 4
  %7 = alloca ptr, align 8
  %8 = alloca ptr, align 8
  %9 = alloca i32, align 4
  %10 = alloca ptr, align 8
  %11 = alloca ptr, align 8
  %12 = alloca ptr, align 8
  %13 = alloca ptr, align 8
  %14 = alloca i32, align 4
  store ptr %0, ptr %7, align 8
  store ptr %1, ptr %8, align 8
  store i32 %2, ptr %9, align 4
  store ptr %3, ptr %10, align 8
  store ptr %4, ptr %11, align 8
  call void @llvm.lifetime.start.p0(i64 8, ptr %12) #5
  store ptr @rumble_context, ptr %12, align 8
  call void @llvm.lifetime.start.p0(i64 8, ptr %13) #5
  %15 = load i32, ptr %9, align 4
  %16 = sext i32 %15 to i64
  %17 = icmp ugt i64 %16, 128
  br i1 %17, label %18, label %21

18:                                               ; preds = %5
  call void @SDL_HIDAPI_UnlockRumble()
  %19 = load i32, ptr %9, align 4
  %20 = call zeroext i1 (ptr, ...) @SDL_SetError_REAL(ptr noundef @.str, i32 noundef %19, i32 noundef 128)
  store i32 -1, ptr %6, align 4
  store i32 1, ptr %14, align 4
  br label %70

21:                                               ; preds = %5
  %22 = call noalias ptr @SDL_calloc_REAL(i64 noundef 1, i64 noundef 168) #6
  store ptr %22, ptr %13, align 8
  %23 = load ptr, ptr %13, align 8
  %24 = icmp ne ptr %23, null
  br i1 %24, label %26, label %25

25:                                               ; preds = %21
  call void @SDL_HIDAPI_UnlockRumble()
  store i32 -1, ptr %6, align 4
  store i32 1, ptr %14, align 4
  br label %70

26:                                               ; preds = %21
  %27 = load ptr, ptr %7, align 8
  %28 = load ptr, ptr %13, align 8
  %29 = getelementptr inbounds nuw %struct.SDL_HIDAPI_RumbleRequest, ptr %28, i32 0, i32 0
  store ptr %27, ptr %29, align 8
  %30 = load ptr, ptr %13, align 8
  %31 = getelementptr inbounds nuw %struct.SDL_HIDAPI_RumbleRequest, ptr %30, i32 0, i32 1
  %32 = getelementptr inbounds [128 x i8], ptr %31, i64 0, i64 0
  %33 = load ptr, ptr %8, align 8
  %34 = load i32, ptr %9, align 4
  %35 = sext i32 %34 to i64
  call void @llvm.memcpy.p0.p0.i64(ptr align 8 %32, ptr align 1 %33, i64 %35, i1 false)
  %36 = load i32, ptr %9, align 4
  %37 = load ptr, ptr %13, align 8
  %38 = getelementptr inbounds nuw %struct.SDL_HIDAPI_RumbleRequest, ptr %37, i32 0, i32 2
  store i32 %36, ptr %38, align 8
  %39 = load ptr, ptr %10, align 8
  %40 = load ptr, ptr %13, align 8
  %41 = getelementptr inbounds nuw %struct.SDL_HIDAPI_RumbleRequest, ptr %40, i32 0, i32 3
  store ptr %39, ptr %41, align 8
  %42 = load ptr, ptr %11, align 8
  %43 = load ptr, ptr %13, align 8
  %44 = getelementptr inbounds nuw %struct.SDL_HIDAPI_RumbleRequest, ptr %43, i32 0, i32 4
  store ptr %42, ptr %44, align 8
  %45 = load ptr, ptr %7, align 8
  %46 = getelementptr inbounds nuw %struct.SDL_HIDAPI_Device, ptr %45, i32 0, i32 23
  %47 = call i32 @SDL_AddAtomicInt_REAL(ptr noundef %46, i32 noundef 1)
  %48 = load ptr, ptr %12, align 8
  %49 = getelementptr inbounds nuw %struct.SDL_HIDAPI_RumbleContext, ptr %48, i32 0, i32 4
  %50 = load ptr, ptr %49, align 8
  %51 = icmp ne ptr %50, null
  br i1 %51, label %52, label %58

52:                                               ; preds = %26
  %53 = load ptr, ptr %13, align 8
  %54 = load ptr, ptr %12, align 8
  %55 = getelementptr inbounds nuw %struct.SDL_HIDAPI_RumbleContext, ptr %54, i32 0, i32 4
  %56 = load ptr, ptr %55, align 8
  %57 = getelementptr inbounds nuw %struct.SDL_HIDAPI_RumbleRequest, ptr %56, i32 0, i32 5
  store ptr %53, ptr %57, align 8
  br label %62

58:                                               ; preds = %26
  %59 = load ptr, ptr %13, align 8
  %60 = load ptr, ptr %12, align 8
  %61 = getelementptr inbounds nuw %struct.SDL_HIDAPI_RumbleContext, ptr %60, i32 0, i32 5
  store ptr %59, ptr %61, align 8
  br label %62

62:                                               ; preds = %58, %52
  %63 = load ptr, ptr %13, align 8
  %64 = load ptr, ptr %12, align 8
  %65 = getelementptr inbounds nuw %struct.SDL_HIDAPI_RumbleContext, ptr %64, i32 0, i32 4
  store ptr %63, ptr %65, align 8
  call void @SDL_HIDAPI_UnlockRumble()
  %66 = load ptr, ptr %12, align 8
  %67 = getelementptr inbounds nuw %struct.SDL_HIDAPI_RumbleContext, ptr %66, i32 0, i32 3
  %68 = load ptr, ptr %67, align 8
  call void @SDL_SignalSemaphore_REAL(ptr noundef %68)
  %69 = load i32, ptr %9, align 4
  store i32 %69, ptr %6, align 4
  store i32 1, ptr %14, align 4
  br label %70

70:                                               ; preds = %62, %25, %18
  call void @llvm.lifetime.end.p0(i64 8, ptr %13) #5
  call void @llvm.lifetime.end.p0(i64 8, ptr %12) #5
  %71 = load i32, ptr %6, align 4
  ret i32 %71
}