; Function Attrs: nounwind uwtable
define hidden range(i32 -1, 129) i32 @SDL_HIDAPI_SendRumbleWithCallbackAndUnlock(ptr noundef %0, ptr noundef readonly captures(none) %1, i32 noundef %2, ptr noundef %3, ptr noundef %4) local_unnamed_addr #0 {
  %6 = sext i32 %2 to i64
  %7 = icmp ugt i32 %2, 128
  br i1 %7, label %8, label %11

8:                                                ; preds = %5
  %9 = load ptr, ptr @SDL_HIDAPI_rumble_lock, align 8
  tail call void @SDL_UnlockMutex_REAL(ptr noundef %9) #6
  %10 = tail call zeroext i1 (ptr, ...) @SDL_SetError_REAL(ptr noundef nonnull @.str, i32 noundef %2, i32 noundef 128) #6
  br label %29

11:                                               ; preds = %5
  %12 = tail call noalias dereferenceable_or_null(168) ptr @SDL_calloc_REAL(i64 noundef 1, i64 noundef 168) #7
  %.not = icmp eq ptr %12, null
  br i1 %.not, label %13, label %15

13:                                               ; preds = %11
  %14 = load ptr, ptr @SDL_HIDAPI_rumble_lock, align 8
  tail call void @SDL_UnlockMutex_REAL(ptr noundef %14) #6
  br label %29

15:                                               ; preds = %11
  store ptr %0, ptr %12, align 8
  %16 = getelementptr inbounds nuw i8, ptr %12, i64 8
  tail call void @llvm.memcpy.p0.p0.i64(ptr nonnull align 8 %16, ptr align 1 %1, i64 %6, i1 false)
  %17 = getelementptr inbounds nuw i8, ptr %12, i64 136
  store i32 %2, ptr %17, align 8
  %18 = getelementptr inbounds nuw i8, ptr %12, i64 144
  store ptr %3, ptr %18, align 8
  %19 = getelementptr inbounds nuw i8, ptr %12, i64 152
  store ptr %4, ptr %19, align 8
  %20 = getelementptr inbounds nuw i8, ptr %0, i64 136
  %21 = tail call i32 @SDL_AddAtomicInt_REAL(ptr noundef nonnull %20, i32 noundef 1) #6
  %22 = load ptr, ptr getelementptr inbounds nuw (i8, ptr @rumble_context, i64 24), align 8
  %.not27 = icmp eq ptr %22, null
  br i1 %.not27, label %25, label %23

23:                                               ; preds = %15
  %24 = getelementptr inbounds nuw i8, ptr %22, i64 160
  store ptr %12, ptr %24, align 8
  br label %26

25:                                               ; preds = %15
  store ptr %12, ptr getelementptr inbounds nuw (i8, ptr @rumble_context, i64 32), align 8
  br label %26

26:                                               ; preds = %25, %23
  store ptr %12, ptr getelementptr inbounds nuw (i8, ptr @rumble_context, i64 24), align 8
  %27 = load ptr, ptr @SDL_HIDAPI_rumble_lock, align 8
  tail call void @SDL_UnlockMutex_REAL(ptr noundef %27) #6
  %28 = load ptr, ptr getelementptr inbounds nuw (i8, ptr @rumble_context, i64 16), align 8
  tail call void @SDL_SignalSemaphore_REAL(ptr noundef %28) #6
  br label %29

29:                                               ; preds = %26, %13, %8
  %.0 = phi i32 [ -1, %8 ], [ %2, %26 ], [ -1, %13 ]
  ret i32 %.0
}